target datalayout = "e-m:e-p270:32:32-p271:32:32-p272:64:64-i64:64-i128:128-f80:128-n8:16:32:64-S128"
target triple = "x86_64-pc-linux-gnu"

%class.CompressedStream.base = type <{ ptr, i32 }>
%"class.Dependencies::DepStream" = type { ptr, ptr, %class.CompressedReadStream, i32, [5 x i32] }
%class.CompressedReadStream = type { %class.CompressedStream.base, [4 x i8] }

@g_assert_poison = external global ptr, align 8
@.str = private unnamed_addr constant [40 x i8] c"src/hotspot/share/code/dependencies.cpp\00", align 1
@.str.16 = private unnamed_addr constant [58 x i8] c"guarantee(FIRST_TYPE <= dept && dept < TYPE_LIMIT) failed\00", align 1
@.str.17 = private unnamed_addr constant [28 x i8] c"invalid dependency type: %d\00", align 1

; Function Attrs: mustprogress nounwind uwtable
define linkonce_odr hidden noundef ptr @_ZN9DepChange19as_new_klass_changeEv(ptr noundef nonnull align 8 dereferenceable(8) %0) #1 comdat align 2 {
  %2 = alloca ptr, align 8
  store ptr %0, ptr %2, align 8
  %3 = load ptr, ptr %2, align 8
  ret ptr %3
}

; Function Attrs: mustprogress nounwind uwtable
define linkonce_odr hidden noundef ptr @_ZN9DepChange20as_klass_init_changeEv(ptr noundef nonnull align 8 dereferenceable(8) %0) #1 comdat align 2 {
  %2 = alloca ptr, align 8
  store ptr %0, ptr %2, align 8
  %3 = load ptr, ptr %2, align 8
  ret ptr %3
}

; Function Attrs: mustprogress nounwind uwtable
define hidden void @_ZN12Dependencies27check_valid_dependency_typeENS_7DepTypeE(i32 noundef %0) #1 align 2 {
  %2 = alloca i32, align 4
  store i32 %0, ptr %2, align 4
  br label %3

3:                                                ; preds = %1
  %4 = load i32, ptr %2, align 4
  %5 = icmp sle i32 1, %4
  br i1 %5, label %6, label %9

6:                                                ; preds = %3
  %7 = load i32, ptr %2, align 4
  %8 = icmp slt i32 %7, 9
  br i1 %8, label %12, label %9

9:                                                ; preds = %6, %3
  %10 = load ptr, ptr @g_assert_poison, align 8
  store i8 88, ptr %10, align 1
  %11 = load i32, ptr %2, align 4
  call void (ptr, i32, ptr, ptr, ...) @_Z15report_vm_errorPKciS0_S0_z(ptr noundef @.str, i32 noundef 622, ptr noundef @.str.16, ptr noundef @.str.17, i32 noundef %11) #9
  unreachable

12:                                               ; preds = %6
  br label %13

13:                                               ; preds = %12
  ret void
}

; Function Attrs: mustprogress nounwind uwtable
define linkonce_odr hidden noundef i32 @_ZN12Dependencies9DepStream4typeEv(ptr noundef nonnull align 8 dereferenceable(56) %0) #1 comdat align 2 {
  %2 = alloca ptr, align 8
  store ptr %0, ptr %2, align 8
  %3 = load ptr, ptr %2, align 8
  %4 = getelementptr inbounds %"class.Dependencies::DepStream", ptr %3, i32 0, i32 3
  %5 = load i32, ptr %4, align 8
  ret i32 %5
}

; Function Attrs: mustprogress nounwind uwtable
define hidden noundef ptr @_ZN12Dependencies9DepStream22check_klass_dependencyEP14KlassDepChange(ptr noundef nonnull align 8 dereferenceable(56) %0, ptr noundef %1) #1 align 2 {
  %3 = alloca ptr, align 8
  %4 = alloca ptr, align 8
  %5 = alloca ptr, align 8
  %6 = alloca ptr, align 8
  store ptr %0, ptr %4, align 8
  store ptr %1, ptr %5, align 8
  %7 = load ptr, ptr %4, align 8
  %8 = call noundef i32 @_ZN12Dependencies9DepStream4typeEv(ptr noundef nonnull align 8 dereferenceable(56) %7)
  call void @_ZN12Dependencies27check_valid_dependency_typeENS_7DepTypeE(i32 noundef %8)
  %9 = load ptr, ptr %5, align 8
  %10 = icmp ne ptr %9, null
  br i1 %10, label %11, label %25

11:                                               ; preds = %2
  %12 = load ptr, ptr %5, align 8
  %13 = load ptr, ptr %12, align 8
  %14 = getelementptr inbounds ptr, ptr %13, i64 2
  %15 = load ptr, ptr %14, align 8
  %16 = call noundef zeroext i1 %15(ptr noundef nonnull align 8 dereferenceable(8) %12)
  br i1 %16, label %17, label %21

17:                                               ; preds = %11
  %18 = load ptr, ptr %5, align 8
  %19 = call noundef ptr @_ZN9DepChange20as_klass_init_changeEv(ptr noundef nonnull align 8 dereferenceable(8) %18)
  %20 = call noundef ptr @_ZN12Dependencies9DepStream27check_klass_init_dependencyEP18KlassInitDepChange(ptr noundef nonnull align 8 dereferenceable(56) %7, ptr noundef %19)
  store ptr %20, ptr %3, align 8
  br label %28

21:                                               ; preds = %11
  %22 = load ptr, ptr %5, align 8
  %23 = call noundef ptr @_ZN9DepChange19as_new_klass_changeEv(ptr noundef nonnull align 8 dereferenceable(8) %22)
  %24 = call noundef ptr @_ZN12Dependencies9DepStream26check_new_klass_dependencyEP17NewKlassDepChange(ptr noundef nonnull align 8 dereferenceable(56) %7, ptr noundef %23)
  store ptr %24, ptr %3, align 8
  br label %28

25:                                               ; preds = %2
  %26 = call noundef ptr @_ZN12Dependencies9DepStream26check_new_klass_dependencyEP17NewKlassDepChange(ptr noundef nonnull align 8 dereferenceable(56) %7, ptr noundef null)
  store ptr %26, ptr %6, align 8
  %27 = load ptr, ptr %6, align 8
  store ptr %27, ptr %3, align 8
  br label %28

28:                                               ; preds = %25, %21, %17
  %29 = load ptr, ptr %3, align 8
  ret ptr %29
}