; Function Attrs: mustprogress nounwind uwtable
define hidden noundef ptr @_ZN12Dependencies9DepStream22check_klass_dependencyEP14KlassDepChange(ptr nocapture noundef nonnull readonly align 8 dereferenceable(56) %0, ptr noundef %1) local_unnamed_addr #0 align 2 {
  %3 = getelementptr inbounds i8, ptr %0, i64 32
  %4 = load i32, ptr %3, align 8
  %5 = add i32 %4, -1
  %or.cond.i = icmp ult i32 %5, 8
  br i1 %or.cond.i, label %_ZN12Dependencies27check_valid_dependency_typeENS_7DepTypeE.exit, label %6

6:                                                ; preds = %2
  %7 = load ptr, ptr @g_assert_poison, align 8
  store i8 88, ptr %7, align 1
  tail call void (ptr, i32, ptr, ptr, ...) @_Z15report_vm_errorPKciS0_S0_z(ptr noundef nonnull @.str, i32 noundef 622, ptr noundef nonnull @.str.16, ptr noundef nonnull @.str.17, i32 noundef %4) #19
  unreachable

_ZN12Dependencies27check_valid_dependency_typeENS_7DepTypeE.exit: ; preds = %2
  %.not = icmp eq ptr %1, null
  br i1 %.not, label %17, label %8

8:                                                ; preds = %_ZN12Dependencies27check_valid_dependency_typeENS_7DepTypeE.exit
  %9 = load ptr, ptr %1, align 8
  %10 = getelementptr inbounds i8, ptr %9, i64 16
  %11 = load ptr, ptr %10, align 8
  %12 = tail call noundef zeroext i1 %11(ptr noundef nonnull align 8 dereferenceable(8) %1) #18
  br i1 %12, label %13, label %15

13:                                               ; preds = %8
  %14 = tail call noundef ptr @_ZN12Dependencies9DepStream27check_klass_init_dependencyEP18KlassInitDepChange(ptr noundef nonnull align 8 dereferenceable(56) %0, ptr noundef nonnull %1)
  br label %19

15:                                               ; preds = %8
  %16 = tail call noundef ptr @_ZN12Dependencies9DepStream26check_new_klass_dependencyEP17NewKlassDepChange(ptr noundef nonnull align 8 dereferenceable(56) %0, ptr noundef nonnull %1)
  br label %19

17:                                               ; preds = %_ZN12Dependencies27check_valid_dependency_typeENS_7DepTypeE.exit
  %18 = tail call noundef ptr @_ZN12Dependencies9DepStream26check_new_klass_dependencyEP17NewKlassDepChange(ptr noundef nonnull align 8 dereferenceable(56) %0, ptr noundef null)
  br label %19

19:                                               ; preds = %17, %15, %13
  %.0 = phi ptr [ %14, %13 ], [ %16, %15 ], [ %18, %17 ]
  ret ptr %.0
}